target datalayout = "e-m:e-p270:32:32-p271:32:32-p272:64:64-i64:64-i128:128-f80:128-n8:16:32:64-S128"
target triple = "x86_64-pc-linux-gnu"

@stderr = external global ptr, align 8
@obuf = internal global [8192 x i8] zeroinitializer, align 16
@optr = internal global ptr null, align 8
@modnamelen = internal global i64 0, align 8
@modname = internal global [80 x i8] zeroinitializer, align 16
@.str.40 = private unnamed_addr constant [31 x i8] c"Error: output buffer overflow\0A\00", align 1
@.str.50 = private unnamed_addr constant [30 x i8] c"Error: string too long: '%s'\0A\00", align 1

; Function Attrs: nounwind uwtable
define internal void @libdef_name(ptr noundef %0, i32 noundef %1) #0 {
  %3 = alloca ptr, align 8
  %4 = alloca i32, align 4
  %5 = alloca i64, align 8
  store ptr %0, ptr %3, align 8, !tbaa !22
  store i32 %1, ptr %4, align 4, !tbaa !20
  call void @llvm.lifetime.start.p0(i64 8, ptr %5) #9
  %6 = load ptr, ptr %3, align 8, !tbaa !22
  %7 = call i64 @strlen(ptr noundef %6) #12
  store i64 %7, ptr %5, align 8, !tbaa !25
  %8 = load i32, ptr %4, align 4, !tbaa !20
  %9 = icmp ne i32 %8, 192
  br i1 %9, label %10, label %36

10:                                               ; preds = %2
  %11 = load i64, ptr %5, align 8, !tbaa !25
  %12 = load i64, ptr @modnamelen, align 8, !tbaa !25
  %13 = icmp ugt i64 %11, %12
  br i1 %13, label %14, label %35

14:                                               ; preds = %10
  %15 = load ptr, ptr %3, align 8, !tbaa !22
  %16 = load i64, ptr @modnamelen, align 8, !tbaa !25
  %17 = getelementptr inbounds nuw i8, ptr %15, i64 %16
  %18 = load i8, ptr %17, align 1, !tbaa !23
  %19 = sext i8 %18 to i32
  %20 = icmp eq i32 %19, 95
  br i1 %20, label %21, label %35

21:                                               ; preds = %14
  %22 = load ptr, ptr %3, align 8, !tbaa !22
  %23 = load i64, ptr @modnamelen, align 8, !tbaa !25
  %24 = call i32 @strncmp(ptr noundef %22, ptr noundef @modname, i64 noundef %23) #12
  %25 = icmp ne i32 %24, 0
  br i1 %25, label %35, label %26

26:                                               ; preds = %21
  %27 = load i64, ptr @modnamelen, align 8, !tbaa !25
  %28 = add i64 %27, 1
  %29 = load ptr, ptr %3, align 8, !tbaa !22
  %30 = getelementptr inbounds nuw i8, ptr %29, i64 %28
  store ptr %30, ptr %3, align 8, !tbaa !22
  %31 = load i64, ptr @modnamelen, align 8, !tbaa !25
  %32 = add i64 %31, 1
  %33 = load i64, ptr %5, align 8, !tbaa !25
  %34 = sub i64 %33, %32
  store i64 %34, ptr %5, align 8, !tbaa !25
  br label %35

35:                                               ; preds = %26, %21, %14, %10
  br label %36

36:                                               ; preds = %35, %2
  %37 = load i64, ptr %5, align 8, !tbaa !25
  %38 = icmp ugt i64 %37, 56
  br i1 %38, label %39, label %43

39:                                               ; preds = %36
  %40 = load ptr, ptr @stderr, align 8, !tbaa !24
  %41 = load ptr, ptr %3, align 8, !tbaa !22
  %42 = call i32 (ptr, ptr, ...) @fprintf(ptr noundef %40, ptr noundef @.str.50, ptr noundef %41) #9
  call void @exit(i32 noundef 1) #11
  unreachable

43:                                               ; preds = %36
  %44 = load ptr, ptr @optr, align 8, !tbaa !22
  %45 = getelementptr inbounds i8, ptr %44, i64 1
  %46 = load i64, ptr %5, align 8, !tbaa !25
  %47 = getelementptr inbounds nuw i8, ptr %45, i64 %46
  %48 = getelementptr inbounds i8, ptr %47, i64 2
  %49 = icmp ugt ptr %48, getelementptr inbounds nuw (i8, ptr @obuf, i64 8192)
  br i1 %49, label %50, label %53

50:                                               ; preds = %43
  %51 = load ptr, ptr @stderr, align 8, !tbaa !24
  %52 = call i32 (ptr, ptr, ...) @fprintf(ptr noundef %51, ptr noundef @.str.40) #9
  call void @exit(i32 noundef 1) #11
  unreachable

53:                                               ; preds = %43
  %54 = load i64, ptr %5, align 8, !tbaa !25
  %55 = load i32, ptr %4, align 4, !tbaa !20
  %56 = sext i32 %55 to i64
  %57 = or i64 %54, %56
  %58 = trunc i64 %57 to i8
  %59 = load ptr, ptr @optr, align 8, !tbaa !22
  %60 = getelementptr inbounds nuw i8, ptr %59, i32 1
  store ptr %60, ptr @optr, align 8, !tbaa !22
  store i8 %58, ptr %59, align 1, !tbaa !23
  %61 = load ptr, ptr @optr, align 8, !tbaa !22
  %62 = load ptr, ptr %3, align 8, !tbaa !22
  %63 = load i64, ptr %5, align 8, !tbaa !25
  call void @llvm.memcpy.p0.p0.i64(ptr align 1 %61, ptr align 1 %62, i64 %63, i1 false)
  %64 = load i64, ptr %5, align 8, !tbaa !25
  %65 = load ptr, ptr @optr, align 8, !tbaa !22
  %66 = getelementptr inbounds nuw i8, ptr %65, i64 %64
  store ptr %66, ptr @optr, align 8, !tbaa !22
  call void @llvm.lifetime.end.p0(i64 8, ptr %5) #9
  ret void
}