; Function Attrs: nofree nounwind uwtable
define internal fastcc void @libdef_name(ptr noundef %0, i32 noundef %1) unnamed_addr #7 {
  %3 = tail call i64 @strlen(ptr noundef nonnull dereferenceable(1) %0) #18
  %.not = icmp eq i32 %1, 192
  br i1 %.not, label %17, label %4

4:                                                ; preds = %2
  %5 = load i64, ptr @modnamelen, align 8, !tbaa !36
  %6 = icmp ugt i64 %3, %5
  br i1 %6, label %7, label %17

7:                                                ; preds = %4
  %8 = getelementptr inbounds nuw i8, ptr %0, i64 %5
  %9 = load i8, ptr %8, align 1, !tbaa !21
  %10 = icmp eq i8 %9, 95
  br i1 %10, label %11, label %17

11:                                               ; preds = %7
  %12 = tail call i32 @strncmp(ptr noundef nonnull %0, ptr noundef nonnull @modname, i64 noundef %5) #18
  %.not17 = icmp eq i32 %12, 0
  br i1 %.not17, label %13, label %17

13:                                               ; preds = %11
  %14 = add nuw i64 %5, 1
  %15 = getelementptr inbounds nuw i8, ptr %0, i64 %14
  %16 = sub i64 %3, %14
  br label %17

17:                                               ; preds = %4, %7, %11, %13, %2
  %.014 = phi ptr [ %0, %11 ], [ %15, %13 ], [ %0, %7 ], [ %0, %4 ], [ %0, %2 ]
  %.0 = phi i64 [ %3, %11 ], [ %16, %13 ], [ %3, %7 ], [ %3, %4 ], [ %3, %2 ]
  %18 = icmp ugt i64 %.0, 56
  br i1 %18, label %19, label %22

19:                                               ; preds = %17
  %20 = load ptr, ptr @stderr, align 8, !tbaa !22
  %21 = tail call i32 (ptr, ptr, ...) @fprintf(ptr noundef %20, ptr noundef nonnull @.str.50, ptr noundef nonnull %.014) #16
  tail call void @exit(i32 noundef 1) #17
  unreachable

22:                                               ; preds = %17
  %23 = load ptr, ptr @optr, align 8, !tbaa !20
  %24 = getelementptr inbounds nuw i8, ptr %23, i64 1
  %25 = getelementptr inbounds nuw i8, ptr %24, i64 %.0
  %26 = getelementptr inbounds nuw i8, ptr %25, i64 2
  %27 = icmp ugt ptr %26, getelementptr inbounds nuw (i8, ptr @obuf, i64 8192)
  br i1 %27, label %28, label %31

28:                                               ; preds = %22
  %29 = load ptr, ptr @stderr, align 8, !tbaa !22
  %30 = tail call i64 @fwrite(ptr nonnull @.str.40, i64 30, i64 1, ptr %29) #19
  tail call void @exit(i32 noundef 1) #17
  unreachable

31:                                               ; preds = %22
  %32 = zext i32 %1 to i64
  %33 = or i64 %.0, %32
  %34 = trunc i64 %33 to i8
  store i8 %34, ptr %23, align 1, !tbaa !21
  tail call void @llvm.memcpy.p0.p0.i64(ptr nonnull align 1 %24, ptr nonnull align 1 %.014, i64 %.0, i1 false)
  store ptr %25, ptr @optr, align 8, !tbaa !20
  ret void
}